target datalayout = "e-m:e-p270:32:32-p271:32:32-p272:64:64-i64:64-i128:128-f80:128-n8:16:32:64-S128"
target triple = "x86_64-pc-linux-gnu"

%struct._Node = type { %union.anon.2 }
%union.anon.2 = type { %struct.BagNode }
%struct.BagNode = type { i32, i32, ptr, ptr, i32, %union.anon.4, i32, i32, i32, i32, i32 }
%union.anon.4 = type { %struct.anon.7 }
%struct.anon.7 = type { ptr, ptr }
%struct.anon.3 = type { i32, i32, ptr, ptr }
%struct.GimmickNode = type { i32, i32, ptr, i32, i32, i32, i32 }
%struct.ParseEnv = type { i32, i32, ptr, ptr, i32, i32, i32, ptr, ptr, ptr, ptr, ptr, i32, i32, i32, i32, [8 x %struct.MemEnv], ptr, i32, i32, i32, i32, ptr, ptr, i32, i32 }
%struct.MemEnv = type { ptr, ptr }

; Function Attrs: nounwind uwtable
define internal i32 @node_set_fail(ptr noundef %0) #0 {
  %2 = alloca ptr, align 8
  store ptr %0, ptr %2, align 8, !tbaa !111
  %3 = load ptr, ptr %2, align 8, !tbaa !111
  %4 = getelementptr inbounds nuw %struct._Node, ptr %3, i32 0, i32 0
  %5 = getelementptr inbounds nuw %struct.anon.3, ptr %4, i32 0, i32 0
  store i32 10, ptr %5, align 8, !tbaa !12
  %6 = load ptr, ptr %2, align 8, !tbaa !111
  %7 = getelementptr inbounds nuw %struct._Node, ptr %6, i32 0, i32 0
  %8 = getelementptr inbounds nuw %struct.GimmickNode, ptr %7, i32 0, i32 3
  store i32 0, ptr %8, align 8, !tbaa !12
  ret i32 0
}

; Function Attrs: nounwind uwtable
define internal ptr @node_new() #0 {
  %1 = alloca ptr, align 8
  %2 = alloca ptr, align 8
  %3 = alloca i32, align 4
  call void @llvm.lifetime.start.p0(i64 8, ptr %2) #8
  %4 = call noalias ptr @malloc(i64 noundef 72) #9
  store ptr %4, ptr %2, align 8, !tbaa !111
  %5 = load ptr, ptr %2, align 8, !tbaa !111
  %6 = icmp eq ptr %5, null
  br i1 %6, label %7, label %8

7:                                                ; preds = %0
  store ptr null, ptr %1, align 8
  store i32 1, ptr %3, align 4
  br label %11

8:                                                ; preds = %0
  %9 = load ptr, ptr %2, align 8, !tbaa !111
  call void @llvm.memset.p0.i64(ptr align 8 %9, i8 0, i64 72, i1 false)
  %10 = load ptr, ptr %2, align 8, !tbaa !111
  store ptr %10, ptr %1, align 8
  store i32 1, ptr %3, align 4
  br label %11

11:                                               ; preds = %8, %7
  call void @llvm.lifetime.end.p0(i64 8, ptr %2) #8
  %12 = load ptr, ptr %1, align 8
  ret ptr %12
}

; Function Attrs: nounwind uwtable
define dso_local void @onig_node_free(ptr noundef %0) #0 {
  %2 = alloca ptr, align 8
  store ptr %0, ptr %2, align 8, !tbaa !111
  %3 = load ptr, ptr %2, align 8, !tbaa !111
  %4 = icmp eq ptr %3, null
  br i1 %4, label %5, label %6

5:                                                ; preds = %1
  br label %9

6:                                                ; preds = %1
  %7 = load ptr, ptr %2, align 8, !tbaa !111
  call void @node_free_body(ptr noundef %7)
  %8 = load ptr, ptr %2, align 8, !tbaa !111
  call void @free(ptr noundef %8) #8
  br label %9

9:                                                ; preds = %6, %5
  ret void
}

; Function Attrs: nounwind uwtable
define internal ptr @make_alt(i32 noundef %0, ptr noundef %1) #0 {
  %3 = alloca i32, align 4
  %4 = alloca ptr, align 8
  store i32 %0, ptr %3, align 4, !tbaa !10
  store ptr %1, ptr %4, align 8, !tbaa !119
  %5 = load i32, ptr %3, align 4, !tbaa !10
  %6 = load ptr, ptr %4, align 8, !tbaa !119
  %7 = call ptr @make_list_or_alt(i32 noundef 8, i32 noundef %5, ptr noundef %6)
  ret ptr %7
}

; Function Attrs: nounwind uwtable
define internal ptr @make_list(i32 noundef %0, ptr noundef %1) #0 {
  %3 = alloca i32, align 4
  %4 = alloca ptr, align 8
  store i32 %0, ptr %3, align 4, !tbaa !10
  store ptr %1, ptr %4, align 8, !tbaa !119
  %5 = load i32, ptr %3, align 4, !tbaa !10
  %6 = load ptr, ptr %4, align 8, !tbaa !119
  %7 = call ptr @make_list_or_alt(i32 noundef 7, i32 noundef %5, ptr noundef %6)
  ret ptr %7
}

; Function Attrs: nounwind uwtable
define internal i32 @node_new_fail(ptr noundef %0, ptr noundef %1) #0 {
  %3 = alloca i32, align 4
  %4 = alloca ptr, align 8
  %5 = alloca ptr, align 8
  store ptr %0, ptr %4, align 8, !tbaa !119
  store ptr %1, ptr %5, align 8, !tbaa !9
  %6 = call ptr @node_new()
  %7 = load ptr, ptr %4, align 8, !tbaa !119
  store ptr %6, ptr %7, align 8, !tbaa !111
  %8 = load ptr, ptr %4, align 8, !tbaa !119
  %9 = load ptr, ptr %8, align 8, !tbaa !111
  %10 = icmp eq ptr %9, null
  br i1 %10, label %11, label %12

11:                                               ; preds = %2
  store i32 -5, ptr %3, align 4
  br label %16

12:                                               ; preds = %2
  %13 = load ptr, ptr %4, align 8, !tbaa !119
  %14 = load ptr, ptr %13, align 8, !tbaa !111
  %15 = call i32 @node_set_fail(ptr noundef %14)
  store i32 %15, ptr %3, align 4
  br label %16

16:                                               ; preds = %12, %11
  %17 = load i32, ptr %3, align 4
  ret i32 %17
}

; Function Attrs: nounwind uwtable
define internal i32 @node_new_update_var_gimmick(ptr noundef %0, i32 noundef %1, i32 noundef %2, ptr noundef %3) #0 {
  %5 = alloca i32, align 4
  %6 = alloca ptr, align 8
  %7 = alloca i32, align 4
  %8 = alloca i32, align 4
  %9 = alloca ptr, align 8
  store ptr %0, ptr %6, align 8, !tbaa !119
  store i32 %1, ptr %7, align 4, !tbaa !10
  store i32 %2, ptr %8, align 4, !tbaa !10
  store ptr %3, ptr %9, align 8, !tbaa !9
  %10 = call ptr @node_new()
  %11 = load ptr, ptr %6, align 8, !tbaa !119
  store ptr %10, ptr %11, align 8, !tbaa !111
  %12 = load ptr, ptr %6, align 8, !tbaa !119
  %13 = load ptr, ptr %12, align 8, !tbaa !111
  %14 = icmp eq ptr %13, null
  br i1 %14, label %15, label %16

15:                                               ; preds = %4
  store i32 -5, ptr %5, align 4
  br label %35

16:                                               ; preds = %4
  %17 = load ptr, ptr %6, align 8, !tbaa !119
  %18 = load ptr, ptr %17, align 8, !tbaa !111
  %19 = getelementptr inbounds nuw %struct._Node, ptr %18, i32 0, i32 0
  %20 = getelementptr inbounds nuw %struct.anon.3, ptr %19, i32 0, i32 0
  store i32 10, ptr %20, align 8, !tbaa !12
  %21 = load i32, ptr %8, align 4, !tbaa !10
  %22 = load ptr, ptr %6, align 8, !tbaa !119
  %23 = load ptr, ptr %22, align 8, !tbaa !111
  %24 = getelementptr inbounds nuw %struct._Node, ptr %23, i32 0, i32 0
  %25 = getelementptr inbounds nuw %struct.GimmickNode, ptr %24, i32 0, i32 6
  store i32 %21, ptr %25, align 4, !tbaa !12
  %26 = load ptr, ptr %6, align 8, !tbaa !119
  %27 = load ptr, ptr %26, align 8, !tbaa !111
  %28 = getelementptr inbounds nuw %struct._Node, ptr %27, i32 0, i32 0
  %29 = getelementptr inbounds nuw %struct.GimmickNode, ptr %28, i32 0, i32 3
  store i32 2, ptr %29, align 8, !tbaa !12
  %30 = load i32, ptr %7, align 4, !tbaa !10
  %31 = load ptr, ptr %6, align 8, !tbaa !119
  %32 = load ptr, ptr %31, align 8, !tbaa !111
  %33 = getelementptr inbounds nuw %struct._Node, ptr %32, i32 0, i32 0
  %34 = getelementptr inbounds nuw %struct.GimmickNode, ptr %33, i32 0, i32 4
  store i32 %30, ptr %34, align 4, !tbaa !12
  store i32 0, ptr %5, align 4
  br label %35

35:                                               ; preds = %16, %15
  %36 = load i32, ptr %5, align 4
  ret i32 %36
}

; Function Attrs: nounwind uwtable
define internal i32 @node_new_save_gimmick(ptr noundef %0, i32 noundef %1, ptr noundef %2) #0 {
  %4 = alloca i32, align 4
  %5 = alloca ptr, align 8
  %6 = alloca i32, align 4
  %7 = alloca ptr, align 8
  %8 = alloca i32, align 4
  %9 = alloca i32, align 4
  store ptr %0, ptr %5, align 8, !tbaa !119
  store i32 %1, ptr %6, align 4, !tbaa !10
  store ptr %2, ptr %7, align 8, !tbaa !9
  call void @llvm.lifetime.start.p0(i64 4, ptr %8) #8
  br label %10

10:                                               ; preds = %3
  %11 = load ptr, ptr %7, align 8, !tbaa !9
  %12 = getelementptr inbounds nuw %struct.ParseEnv, ptr %11, i32 0, i32 20
  %13 = load i32, ptr %12, align 8, !tbaa !178
  %14 = add nsw i32 %13, 1
  store i32 %14, ptr %12, align 8, !tbaa !178
  store i32 %13, ptr %8, align 4, !tbaa !10
  br label %15

15:                                               ; preds = %10
  br label %16

16:                                               ; preds = %15
  %17 = call ptr @node_new()
  %18 = load ptr, ptr %5, align 8, !tbaa !119
  store ptr %17, ptr %18, align 8, !tbaa !111
  %19 = load ptr, ptr %5, align 8, !tbaa !119
  %20 = load ptr, ptr %19, align 8, !tbaa !111
  %21 = icmp eq ptr %20, null
  br i1 %21, label %22, label %23

22:                                               ; preds = %16
  store i32 -5, ptr %4, align 4
  store i32 1, ptr %9, align 4
  br label %42

23:                                               ; preds = %16
  %24 = load ptr, ptr %5, align 8, !tbaa !119
  %25 = load ptr, ptr %24, align 8, !tbaa !111
  %26 = getelementptr inbounds nuw %struct._Node, ptr %25, i32 0, i32 0
  %27 = getelementptr inbounds nuw %struct.anon.3, ptr %26, i32 0, i32 0
  store i32 10, ptr %27, align 8, !tbaa !12
  %28 = load i32, ptr %8, align 4, !tbaa !10
  %29 = load ptr, ptr %5, align 8, !tbaa !119
  %30 = load ptr, ptr %29, align 8, !tbaa !111
  %31 = getelementptr inbounds nuw %struct._Node, ptr %30, i32 0, i32 0
  %32 = getelementptr inbounds nuw %struct.GimmickNode, ptr %31, i32 0, i32 6
  store i32 %28, ptr %32, align 4, !tbaa !12
  %33 = load ptr, ptr %5, align 8, !tbaa !119
  %34 = load ptr, ptr %33, align 8, !tbaa !111
  %35 = getelementptr inbounds nuw %struct._Node, ptr %34, i32 0, i32 0
  %36 = getelementptr inbounds nuw %struct.GimmickNode, ptr %35, i32 0, i32 3
  store i32 1, ptr %36, align 8, !tbaa !12
  %37 = load i32, ptr %6, align 4, !tbaa !10
  %38 = load ptr, ptr %5, align 8, !tbaa !119
  %39 = load ptr, ptr %38, align 8, !tbaa !111
  %40 = getelementptr inbounds nuw %struct._Node, ptr %39, i32 0, i32 0
  %41 = getelementptr inbounds nuw %struct.GimmickNode, ptr %40, i32 0, i32 4
  store i32 %37, ptr %41, align 4, !tbaa !12
  store i32 0, ptr %4, align 4
  store i32 1, ptr %9, align 4
  br label %42

42:                                               ; preds = %23, %22
  call void @llvm.lifetime.end.p0(i64 4, ptr %8) #8
  %43 = load i32, ptr %4, align 4
  ret i32 %43
}

; Function Attrs: nounwind uwtable
define internal i32 @make_absent_tail(ptr noundef %0, ptr noundef %1, i32 noundef %2, ptr noundef %3) #0 {
  %5 = alloca i32, align 4
  %6 = alloca ptr, align 8
  %7 = alloca ptr, align 8
  %8 = alloca i32, align 4
  %9 = alloca ptr, align 8
  %10 = alloca i32, align 4
  %11 = alloca i32, align 4
  %12 = alloca ptr, align 8
  %13 = alloca ptr, align 8
  %14 = alloca [2 x ptr], align 16
  %15 = alloca i32, align 4
  store ptr %0, ptr %6, align 8, !tbaa !119
  store ptr %1, ptr %7, align 8, !tbaa !119
  store i32 %2, ptr %8, align 4, !tbaa !10
  store ptr %3, ptr %9, align 8, !tbaa !9
  call void @llvm.lifetime.start.p0(i64 4, ptr %10) #8
  call void @llvm.lifetime.start.p0(i64 4, ptr %11) #8
  call void @llvm.lifetime.start.p0(i64 8, ptr %12) #8
  call void @llvm.lifetime.start.p0(i64 8, ptr %13) #8
  call void @llvm.lifetime.start.p0(i64 16, ptr %14) #8
  %16 = load ptr, ptr %7, align 8, !tbaa !119
  store ptr null, ptr %16, align 8, !tbaa !111
  %17 = load ptr, ptr %6, align 8, !tbaa !119
  store ptr null, ptr %17, align 8, !tbaa !111
  %18 = getelementptr inbounds [2 x ptr], ptr %14, i64 0, i64 1
  store ptr null, ptr %18, align 8, !tbaa !111
  %19 = getelementptr inbounds [2 x ptr], ptr %14, i64 0, i64 0
  store ptr null, ptr %19, align 16, !tbaa !111
  store ptr null, ptr %12, align 8, !tbaa !111
  %20 = load ptr, ptr %9, align 8, !tbaa !9
  %21 = call i32 @node_new_save_gimmick(ptr noundef %12, i32 noundef 2, ptr noundef %20)
  store i32 %21, ptr %10, align 4, !tbaa !10
  %22 = load i32, ptr %10, align 4, !tbaa !10
  %23 = icmp ne i32 %22, 0
  br i1 %23, label %24, label %25

24:                                               ; preds = %4
  br label %73

25:                                               ; preds = %4
  %26 = load ptr, ptr %12, align 8, !tbaa !111
  %27 = getelementptr inbounds nuw %struct._Node, ptr %26, i32 0, i32 0
  %28 = getelementptr inbounds nuw %struct.GimmickNode, ptr %27, i32 0, i32 6
  %29 = load i32, ptr %28, align 4, !tbaa !12
  store i32 %29, ptr %11, align 4, !tbaa !10
  %30 = getelementptr inbounds [2 x ptr], ptr %14, i64 0, i64 0
  %31 = load i32, ptr %11, align 4, !tbaa !10
  %32 = load ptr, ptr %9, align 8, !tbaa !9
  %33 = call i32 @node_new_update_var_gimmick(ptr noundef %30, i32 noundef 2, i32 noundef %31, ptr noundef %32)
  store i32 %33, ptr %10, align 4, !tbaa !10
  %34 = load i32, ptr %10, align 4, !tbaa !10
  %35 = icmp ne i32 %34, 0
  br i1 %35, label %36, label %37

36:                                               ; preds = %25
  br label %73

37:                                               ; preds = %25
  %38 = getelementptr inbounds [2 x ptr], ptr %14, i64 0, i64 1
  %39 = load ptr, ptr %9, align 8, !tbaa !9
  %40 = call i32 @node_new_fail(ptr noundef %38, ptr noundef %39)
  store i32 %40, ptr %10, align 4, !tbaa !10
  %41 = load i32, ptr %10, align 4, !tbaa !10
  %42 = icmp ne i32 %41, 0
  br i1 %42, label %43, label %44

43:                                               ; preds = %37
  br label %73

44:                                               ; preds = %37
  %45 = getelementptr inbounds [2 x ptr], ptr %14, i64 0, i64 0
  %46 = call ptr @make_list(i32 noundef 2, ptr noundef %45)
  store ptr %46, ptr %13, align 8, !tbaa !111
  %47 = load ptr, ptr %13, align 8, !tbaa !111
  %48 = icmp eq ptr %47, null
  br i1 %48, label %49, label %50

49:                                               ; preds = %44
  br label %72

50:                                               ; preds = %44
  %51 = getelementptr inbounds [2 x ptr], ptr %14, i64 0, i64 0
  store ptr null, ptr %51, align 16, !tbaa !111
  %52 = load ptr, ptr %13, align 8, !tbaa !111
  %53 = getelementptr inbounds [2 x ptr], ptr %14, i64 0, i64 1
  store ptr %52, ptr %53, align 8, !tbaa !111
  %54 = getelementptr inbounds [2 x ptr], ptr %14, i64 0, i64 0
  %55 = load i32, ptr %8, align 4, !tbaa !10
  %56 = load ptr, ptr %9, align 8, !tbaa !9
  %57 = call i32 @node_new_update_var_gimmick(ptr noundef %54, i32 noundef 2, i32 noundef %55, ptr noundef %56)
  store i32 %57, ptr %10, align 4, !tbaa !10
  %58 = load i32, ptr %10, align 4, !tbaa !10
  %59 = icmp ne i32 %58, 0
  br i1 %59, label %60, label %61

60:                                               ; preds = %50
  br label %73

61:                                               ; preds = %50
  %62 = getelementptr inbounds [2 x ptr], ptr %14, i64 0, i64 0
  %63 = call ptr @make_alt(i32 noundef 2, ptr noundef %62)
  store ptr %63, ptr %13, align 8, !tbaa !111
  %64 = load ptr, ptr %13, align 8, !tbaa !111
  %65 = icmp eq ptr %64, null
  br i1 %65, label %66, label %67

66:                                               ; preds = %61
  br label %72

67:                                               ; preds = %61
  %68 = load ptr, ptr %12, align 8, !tbaa !111
  %69 = load ptr, ptr %6, align 8, !tbaa !119
  store ptr %68, ptr %69, align 8, !tbaa !111
  %70 = load ptr, ptr %13, align 8, !tbaa !111
  %71 = load ptr, ptr %7, align 8, !tbaa !119
  store ptr %70, ptr %71, align 8, !tbaa !111
  store i32 0, ptr %5, align 4
  store i32 1, ptr %15, align 4
  br label %80

72:                                               ; preds = %66, %49
  store i32 -5, ptr %10, align 4, !tbaa !10
  br label %73

73:                                               ; preds = %72, %60, %43, %36, %24
  %74 = load ptr, ptr %12, align 8, !tbaa !111
  call void @onig_node_free(ptr noundef %74)
  %75 = getelementptr inbounds [2 x ptr], ptr %14, i64 0, i64 0
  %76 = load ptr, ptr %75, align 16, !tbaa !111
  call void @onig_node_free(ptr noundef %76)
  %77 = getelementptr inbounds [2 x ptr], ptr %14, i64 0, i64 1
  %78 = load ptr, ptr %77, align 8, !tbaa !111
  call void @onig_node_free(ptr noundef %78)
  %79 = load i32, ptr %10, align 4, !tbaa !10
  store i32 %79, ptr %5, align 4
  store i32 1, ptr %15, align 4
  br label %80

80:                                               ; preds = %73, %67
  call void @llvm.lifetime.end.p0(i64 16, ptr %14) #8
  call void @llvm.lifetime.end.p0(i64 8, ptr %13) #8
  call void @llvm.lifetime.end.p0(i64 8, ptr %12) #8
  call void @llvm.lifetime.end.p0(i64 4, ptr %11) #8
  call void @llvm.lifetime.end.p0(i64 4, ptr %10) #8
  %81 = load i32, ptr %5, align 4
  ret i32 %81
}